target datalayout = "e-m:e-p270:32:32-p271:32:32-p272:64:64-i64:64-i128:128-f80:128-n8:16:32:64-S128"
target triple = "x86_64-pc-linux-gnu"

%"class.std::locale" = type { ptr }
%"class.std::basic_ios" = type { %"class.std::ios_base", ptr, i8, i8, ptr, ptr, ptr, ptr }
%"class.std::ios_base" = type { ptr, i64, i64, i32, i32, i32, ptr, %"struct.std::ios_base::_Words", [8 x %"struct.std::ios_base::_Words"], i32, ptr, %"class.std::locale" }
%"struct.std::ios_base::_Words" = type { ptr, i64 }
%"class.std::ctype" = type <{ %"class.std::locale::facet.base", [4 x i8], ptr, i8, [7 x i8], ptr, ptr, ptr, i8, [256 x i8], [256 x i8], i8, [6 x i8] }>
%"class.std::locale::facet.base" = type <{ ptr, i32 }>

; Function Attrs: mustprogress uwtable
define linkonce_odr hidden noundef signext i8 @_ZNKSt5ctypeIcE5widenEc(ptr noundef nonnull align 8 dereferenceable(570) %0, i8 noundef signext %1) #4 comdat align 2 {
  %3 = alloca i8, align 1
  %4 = alloca ptr, align 8
  %5 = alloca i8, align 1
  store ptr %0, ptr %4, align 8, !tbaa !163
  store i8 %1, ptr %5, align 1, !tbaa !82
  %6 = load ptr, ptr %4, align 8
  %7 = getelementptr inbounds nuw %"class.std::ctype", ptr %6, i32 0, i32 8
  %8 = load i8, ptr %7, align 8, !tbaa !164
  %9 = icmp ne i8 %8, 0
  br i1 %9, label %10, label %16

10:                                               ; preds = %2
  %11 = getelementptr inbounds nuw %"class.std::ctype", ptr %6, i32 0, i32 9
  %12 = load i8, ptr %5, align 1, !tbaa !82
  %13 = zext i8 %12 to i64
  %14 = getelementptr inbounds nuw [256 x i8], ptr %11, i64 0, i64 %13
  %15 = load i8, ptr %14, align 1, !tbaa !82
  store i8 %15, ptr %3, align 1
  br label %22

16:                                               ; preds = %2
  call void @_ZNKSt5ctypeIcE13_M_widen_initEv(ptr noundef nonnull align 8 dereferenceable(570) %6)
  %17 = load i8, ptr %5, align 1, !tbaa !82
  %18 = load ptr, ptr %6, align 8, !tbaa !8
  %19 = getelementptr inbounds ptr, ptr %18, i64 6
  %20 = load ptr, ptr %19, align 8
  %21 = call noundef signext i8 %20(ptr noundef nonnull align 8 dereferenceable(570) %6, i8 noundef signext %17)
  store i8 %21, ptr %3, align 1
  br label %22

22:                                               ; preds = %16, %10
  %23 = load i8, ptr %3, align 1
  ret i8 %23
}

; Function Attrs: inlinehint mustprogress uwtable
define linkonce_odr noundef nonnull align 8 dereferenceable(570) ptr @_ZSt13__check_facetISt5ctypeIcEERKT_PS3_(ptr noundef %0) #13 comdat {
  %2 = alloca ptr, align 8
  store ptr %0, ptr %2, align 8, !tbaa !163
  %3 = load ptr, ptr %2, align 8, !tbaa !163
  %4 = icmp ne ptr %3, null
  br i1 %4, label %6, label %5

5:                                                ; preds = %1
  call void @_ZSt16__throw_bad_castv() #27
  unreachable

6:                                                ; preds = %1
  %7 = load ptr, ptr %2, align 8, !tbaa !163
  ret ptr %7
}

; Function Attrs: mustprogress uwtable
define available_externally noundef signext i8 @_ZNKSt9basic_iosIcSt11char_traitsIcEE5widenEc(ptr noundef nonnull align 8 dereferenceable(264) %0, i8 noundef signext %1) #4 align 2 {
  %3 = alloca ptr, align 8
  %4 = alloca i8, align 1
  store ptr %0, ptr %3, align 8, !tbaa !142
  store i8 %1, ptr %4, align 1, !tbaa !82
  %5 = load ptr, ptr %3, align 8
  %6 = getelementptr inbounds nuw %"class.std::basic_ios", ptr %5, i32 0, i32 5
  %7 = load ptr, ptr %6, align 8, !tbaa !157
  %8 = call noundef nonnull align 8 dereferenceable(570) ptr @_ZSt13__check_facetISt5ctypeIcEERKT_PS3_(ptr noundef %7)
  %9 = load i8, ptr %4, align 1, !tbaa !82
  %10 = call noundef signext i8 @_ZNKSt5ctypeIcE5widenEc(ptr noundef nonnull align 8 dereferenceable(570) %8, i8 noundef signext %9)
  ret i8 %10
}

; Function Attrs: mustprogress nounwind uwtable
define available_externally noundef i32 @_ZNKSt9basic_iosIcSt11char_traitsIcEE7rdstateEv(ptr noundef nonnull align 8 dereferenceable(264) %0) #7 align 2 {
  %2 = alloca ptr, align 8
  store ptr %0, ptr %2, align 8, !tbaa !142
  %3 = load ptr, ptr %2, align 8
  %4 = getelementptr inbounds nuw %"class.std::ios_base", ptr %3, i32 0, i32 5
  %5 = load i32, ptr %4, align 8, !tbaa !148
  ret i32 %5
}

; Function Attrs: mustprogress nounwind uwtable
define internal void @_ZN19OpenColorIO_v2_5dev12_GLOBAL__N_115StripEndNewLineEPc(ptr noundef %0) #7 {
  %2 = alloca ptr, align 8
  %3 = alloca i64, align 8
  store ptr %0, ptr %2, align 8, !tbaa !72
  call void @llvm.lifetime.start.p0(i64 8, ptr %3) #3
  %4 = load ptr, ptr %2, align 8, !tbaa !72
  %5 = call i64 @strlen(ptr noundef %4) #24
  store i64 %5, ptr %3, align 8, !tbaa !81
  %6 = load i64, ptr %3, align 8, !tbaa !81
  %7 = icmp ne i64 %6, 0
  br i1 %7, label %8, label %29

8:                                                ; preds = %1
  %9 = load i64, ptr %3, align 8, !tbaa !81
  %10 = add i64 %9, -1
  store i64 %10, ptr %3, align 8, !tbaa !81
  %11 = load ptr, ptr %2, align 8, !tbaa !72
  %12 = load i64, ptr %3, align 8, !tbaa !81
  %13 = getelementptr inbounds nuw i8, ptr %11, i64 %12
  %14 = load i8, ptr %13, align 1, !tbaa !82
  %15 = sext i8 %14 to i32
  %16 = icmp eq i32 %15, 10
  br i1 %16, label %24, label %17

17:                                               ; preds = %8
  %18 = load ptr, ptr %2, align 8, !tbaa !72
  %19 = load i64, ptr %3, align 8, !tbaa !81
  %20 = getelementptr inbounds nuw i8, ptr %18, i64 %19
  %21 = load i8, ptr %20, align 1, !tbaa !82
  %22 = sext i8 %21 to i32
  %23 = icmp eq i32 %22, 13
  br i1 %23, label %24, label %28

24:                                               ; preds = %17, %8
  %25 = load ptr, ptr %2, align 8, !tbaa !72
  %26 = load i64, ptr %3, align 8, !tbaa !81
  %27 = getelementptr inbounds nuw i8, ptr %25, i64 %26
  store i8 0, ptr %27, align 1, !tbaa !82
  br label %28

28:                                               ; preds = %24, %17
  br label %29

29:                                               ; preds = %28, %1
  call void @llvm.lifetime.end.p0(i64 8, ptr %3) #3
  ret void
}

; Function Attrs: mustprogress nounwind uwtable
define internal void @_ZN19OpenColorIO_v2_5dev12_GLOBAL__N_125ReplaceTabsAndStripSpacesEPc(ptr noundef %0) #7 {
  %2 = alloca ptr, align 8
  %3 = alloca i16, align 2
  %4 = alloca i16, align 2
  store ptr %0, ptr %2, align 8, !tbaa !72
  call void @llvm.lifetime.start.p0(i64 2, ptr %3) #3
  store i16 -1, ptr %3, align 2, !tbaa !48
  call void @llvm.lifetime.start.p0(i64 2, ptr %4) #3
  store i16 0, ptr %4, align 2, !tbaa !48
  %5 = load ptr, ptr %2, align 8, !tbaa !72
  %6 = load i8, ptr %5, align 1, !tbaa !82
  %7 = icmp ne i8 %6, 0
  br i1 %7, label %8, label %96

8:                                                ; preds = %1
  br label %9

9:                                                ; preds = %30, %8
  %10 = load ptr, ptr %2, align 8, !tbaa !72
  %11 = load i16, ptr %3, align 2, !tbaa !48
  %12 = add i16 %11, 1
  store i16 %12, ptr %3, align 2, !tbaa !48
  %13 = sext i16 %12 to i64
  %14 = getelementptr inbounds i8, ptr %10, i64 %13
  %15 = load i8, ptr %14, align 1, !tbaa !82
  %16 = icmp ne i8 %15, 0
  br i1 %16, label %17, label %31

17:                                               ; preds = %9
  %18 = load ptr, ptr %2, align 8, !tbaa !72
  %19 = load i16, ptr %3, align 2, !tbaa !48
  %20 = sext i16 %19 to i64
  %21 = getelementptr inbounds i8, ptr %18, i64 %20
  %22 = load i8, ptr %21, align 1, !tbaa !82
  %23 = sext i8 %22 to i32
  %24 = icmp eq i32 %23, 9
  br i1 %24, label %25, label %30

25:                                               ; preds = %17
  %26 = load ptr, ptr %2, align 8, !tbaa !72
  %27 = load i16, ptr %3, align 2, !tbaa !48
  %28 = sext i16 %27 to i64
  %29 = getelementptr inbounds i8, ptr %26, i64 %28
  store i8 32, ptr %29, align 1, !tbaa !82
  br label %30

30:                                               ; preds = %25, %17
  br label %9, !llvm.loop !144

31:                                               ; preds = %9
  br label %32

32:                                               ; preds = %47, %31
  %33 = load i16, ptr %3, align 2, !tbaa !48
  %34 = add i16 %33, -1
  store i16 %34, ptr %3, align 2, !tbaa !48
  %35 = sext i16 %34 to i32
  %36 = icmp sge i32 %35, 0
  br i1 %36, label %37, label %45

37:                                               ; preds = %32
  %38 = load ptr, ptr %2, align 8, !tbaa !72
  %39 = load i16, ptr %3, align 2, !tbaa !48
  %40 = sext i16 %39 to i64
  %41 = getelementptr inbounds i8, ptr %38, i64 %40
  %42 = load i8, ptr %41, align 1, !tbaa !82
  %43 = sext i8 %42 to i32
  %44 = icmp eq i32 %43, 32
  br label %45

45:                                               ; preds = %37, %32
  %46 = phi i1 [ false, %32 ], [ %44, %37 ]
  br i1 %46, label %47, label %48

47:                                               ; preds = %45
  br label %32, !llvm.loop !145

48:                                               ; preds = %45
  %49 = load ptr, ptr %2, align 8, !tbaa !72
  %50 = load i16, ptr %3, align 2, !tbaa !48
  %51 = add i16 %50, 1
  store i16 %51, ptr %3, align 2, !tbaa !48
  %52 = sext i16 %51 to i64
  %53 = getelementptr inbounds i8, ptr %49, i64 %52
  %54 = load i8, ptr %53, align 1, !tbaa !82
  %55 = sext i8 %54 to i32
  %56 = icmp ne i32 %55, 0
  br i1 %56, label %57, label %62

57:                                               ; preds = %48
  %58 = load ptr, ptr %2, align 8, !tbaa !72
  %59 = load i16, ptr %3, align 2, !tbaa !48
  %60 = sext i16 %59 to i64
  %61 = getelementptr inbounds i8, ptr %58, i64 %60
  store i8 0, ptr %61, align 1, !tbaa !82
  br label %62

62:                                               ; preds = %57, %48
  store i16 -1, ptr %3, align 2, !tbaa !48
  br label %63

63:                                               ; preds = %72, %62
  %64 = load ptr, ptr %2, align 8, !tbaa !72
  %65 = load i16, ptr %3, align 2, !tbaa !48
  %66 = add i16 %65, 1
  store i16 %66, ptr %3, align 2, !tbaa !48
  %67 = sext i16 %66 to i64
  %68 = getelementptr inbounds i8, ptr %64, i64 %67
  %69 = load i8, ptr %68, align 1, !tbaa !82
  %70 = sext i8 %69 to i32
  %71 = icmp eq i32 %70, 32
  br i1 %71, label %72, label %73

72:                                               ; preds = %63
  br label %63, !llvm.loop !146

73:                                               ; preds = %63
  %74 = load i16, ptr %4, align 2, !tbaa !48
  %75 = sext i16 %74 to i32
  %76 = load i16, ptr %3, align 2, !tbaa !48
  %77 = sext i16 %76 to i32
  %78 = icmp ne i32 %75, %77
  br i1 %78, label %79, label %95

79:                                               ; preds = %73
  br label %80

80:                                               ; preds = %93, %79
  %81 = load ptr, ptr %2, align 8, !tbaa !72
  %82 = load i16, ptr %3, align 2, !tbaa !48
  %83 = add i16 %82, 1
  store i16 %83, ptr %3, align 2, !tbaa !48
  %84 = sext i16 %82 to i64
  %85 = getelementptr inbounds i8, ptr %81, i64 %84
  %86 = load i8, ptr %85, align 1, !tbaa !82
  %87 = load ptr, ptr %2, align 8, !tbaa !72
  %88 = load i16, ptr %4, align 2, !tbaa !48
  %89 = add i16 %88, 1
  store i16 %89, ptr %4, align 2, !tbaa !48
  %90 = sext i16 %88 to i64
  %91 = getelementptr inbounds i8, ptr %87, i64 %90
  store i8 %86, ptr %91, align 1, !tbaa !82
  %92 = icmp ne i8 %86, 0
  br i1 %92, label %93, label %94

93:                                               ; preds = %80
  br label %80, !llvm.loop !147

94:                                               ; preds = %80
  br label %95

95:                                               ; preds = %94, %73
  br label %96

96:                                               ; preds = %95, %1
  call void @llvm.lifetime.end.p0(i64 2, ptr %4) #3
  call void @llvm.lifetime.end.p0(i64 2, ptr %3) #3
  ret void
}

; Function Attrs: mustprogress uwtable
define available_externally noundef nonnull align 8 dereferenceable(16) ptr @_ZNSi7getlineEPcl(ptr noundef nonnull align 8 dereferenceable(16) %0, ptr noundef %1, i64 noundef %2) #4 align 2 {
  %4 = alloca ptr, align 8
  %5 = alloca ptr, align 8
  %6 = alloca i64, align 8
  store ptr %0, ptr %4, align 8, !tbaa !22
  store ptr %1, ptr %5, align 8, !tbaa !72
  store i64 %2, ptr %6, align 8, !tbaa !81
  %7 = load ptr, ptr %4, align 8
  %8 = load ptr, ptr %5, align 8, !tbaa !72
  %9 = load i64, ptr %6, align 8, !tbaa !81
  %10 = load ptr, ptr %7, align 8, !tbaa !8
  %11 = getelementptr i8, ptr %10, i64 -24
  %12 = load i64, ptr %11, align 8
  %13 = getelementptr inbounds i8, ptr %7, i64 %12
  %14 = call noundef signext i8 @_ZNKSt9basic_iosIcSt11char_traitsIcEE5widenEc(ptr noundef nonnull align 8 dereferenceable(264) %13, i8 noundef signext 10)
  %15 = call noundef nonnull align 8 dereferenceable(16) ptr @_ZNSi7getlineEPclc(ptr noundef nonnull align 8 dereferenceable(16) %7, ptr noundef %8, i64 noundef %9, i8 noundef signext %14)
  ret ptr %15
}

; Function Attrs: mustprogress uwtable
define available_externally noundef zeroext i1 @_ZNKSt9basic_iosIcSt11char_traitsIcEE4goodEv(ptr noundef nonnull align 8 dereferenceable(264) %0) #4 align 2 {
  %2 = alloca ptr, align 8
  store ptr %0, ptr %2, align 8, !tbaa !142
  %3 = load ptr, ptr %2, align 8
  %4 = call noundef i32 @_ZNKSt9basic_iosIcSt11char_traitsIcEE7rdstateEv(ptr noundef nonnull align 8 dereferenceable(264) %3)
  %5 = icmp eq i32 %4, 0
  ret i1 %5
}

; Function Attrs: mustprogress uwtable
define internal noundef zeroext i1 @_ZN19OpenColorIO_v2_5dev12_GLOBAL__N_114FindNonCommentERSiRiPci(ptr noundef nonnull align 8 dereferenceable(16) %0, ptr noundef nonnull align 4 dereferenceable(4) %1, ptr noundef %2, i32 noundef %3) #4 {
  %5 = alloca ptr, align 8
  %6 = alloca ptr, align 8
  %7 = alloca ptr, align 8
  %8 = alloca i32, align 4
  %9 = alloca i8, align 1
  store ptr %0, ptr %5, align 8, !tbaa !22
  store ptr %1, ptr %6, align 8, !tbaa !113
  store ptr %2, ptr %7, align 8, !tbaa !72
  store i32 %3, ptr %8, align 4, !tbaa !30
  call void @llvm.lifetime.start.p0(i64 1, ptr %9) #3
  store i8 1, ptr %9, align 1, !tbaa !65
  br label %10

10:                                               ; preds = %45, %4
  %11 = load ptr, ptr %5, align 8, !tbaa !22
  %12 = load ptr, ptr %11, align 8, !tbaa !8
  %13 = getelementptr i8, ptr %12, i64 -24
  %14 = load i64, ptr %13, align 8
  %15 = getelementptr inbounds i8, ptr %11, i64 %14
  %16 = call noundef zeroext i1 @_ZNKSt9basic_iosIcSt11char_traitsIcEE4goodEv(ptr noundef nonnull align 8 dereferenceable(264) %15)
  br i1 %16, label %17, label %20

17:                                               ; preds = %10
  %18 = load i8, ptr %9, align 1, !tbaa !65, !range !67, !noundef !68
  %19 = trunc i8 %18 to i1
  br label %20

20:                                               ; preds = %17, %10
  %21 = phi i1 [ false, %10 ], [ %19, %17 ]
  br i1 %21, label %22, label %46

22:                                               ; preds = %20
  store i8 0, ptr %9, align 1, !tbaa !65
  %23 = load ptr, ptr %5, align 8, !tbaa !22
  %24 = load ptr, ptr %7, align 8, !tbaa !72
  %25 = load i32, ptr %8, align 4, !tbaa !30
  %26 = sext i32 %25 to i64
  %27 = call noundef nonnull align 8 dereferenceable(16) ptr @_ZNSi7getlineEPcl(ptr noundef nonnull align 8 dereferenceable(16) %23, ptr noundef %24, i64 noundef %26)
  %28 = load ptr, ptr %6, align 8, !tbaa !113
  %29 = load i32, ptr %28, align 4, !tbaa !30
  %30 = add nsw i32 %29, 1
  store i32 %30, ptr %28, align 4, !tbaa !30
  %31 = load ptr, ptr %7, align 8, !tbaa !72
  call void @_ZN19OpenColorIO_v2_5dev12_GLOBAL__N_125ReplaceTabsAndStripSpacesEPc(ptr noundef %31)
  %32 = load ptr, ptr %7, align 8, !tbaa !72
  call void @_ZN19OpenColorIO_v2_5dev12_GLOBAL__N_115StripEndNewLineEPc(ptr noundef %32)
  %33 = load ptr, ptr %7, align 8, !tbaa !72
  %34 = getelementptr inbounds i8, ptr %33, i64 0
  %35 = load i8, ptr %34, align 1, !tbaa !82
  %36 = sext i8 %35 to i32
  %37 = icmp eq i32 %36, 0
  br i1 %37, label %44, label %38

38:                                               ; preds = %22
  %39 = load ptr, ptr %7, align 8, !tbaa !72
  %40 = getelementptr inbounds i8, ptr %39, i64 0
  %41 = load i8, ptr %40, align 1, !tbaa !82
  %42 = sext i8 %41 to i32
  %43 = icmp eq i32 %42, 35
  br i1 %43, label %44, label %45

44:                                               ; preds = %38, %22
  store i8 1, ptr %9, align 1, !tbaa !65
  br label %45

45:                                               ; preds = %44, %38
  br label %10, !llvm.loop !138

46:                                               ; preds = %20
  %47 = load ptr, ptr %5, align 8, !tbaa !22
  %48 = load ptr, ptr %47, align 8, !tbaa !8
  %49 = getelementptr i8, ptr %48, i64 -24
  %50 = load i64, ptr %49, align 8
  %51 = getelementptr inbounds i8, ptr %47, i64 %50
  %52 = call noundef zeroext i1 @_ZNKSt9basic_iosIcSt11char_traitsIcEE4goodEv(ptr noundef nonnull align 8 dereferenceable(264) %51)
  call void @llvm.lifetime.end.p0(i64 1, ptr %9) #3
  ret i1 %52
}