; Function Attrs: mustprogress uwtable
define internal fastcc noundef zeroext i1 @_ZN19OpenColorIO_v2_5dev12_GLOBAL__N_114FindNonCommentERSiRiPci(ptr noundef nonnull align 8 dereferenceable(16) %0, ptr noundef nonnull align 4 captures(none) dereferenceable(4) %1, ptr noundef nonnull %2) unnamed_addr #3 {
  %invariant.gep = getelementptr i8, ptr %2, i64 -1
  %4 = load ptr, ptr %0, align 8, !tbaa !3
  %5 = getelementptr i8, ptr %4, i64 -24
  %6 = load i64, ptr %5, align 8
  %7 = getelementptr inbounds i8, ptr %0, i64 %6
  %8 = getelementptr inbounds nuw i8, ptr %7, i64 32
  %9 = load i32, ptr %8, align 8, !tbaa !44
  %10 = icmp eq i32 %9, 0
  br i1 %10, label %.lr.ph.preheader, label %._crit_edge

.lr.ph.preheader:                                 ; preds = %3
  %invariant.gep19 = getelementptr i8, ptr %0, i64 240
  %invariant.gep21 = getelementptr i8, ptr %0, i64 32
  br label %.lr.ph

.lr.ph:                                           ; preds = %.lr.ph.preheader, %_ZN19OpenColorIO_v2_5dev12_GLOBAL__N_115StripEndNewLineEPc.exit
  %11 = phi i64 [ %69, %_ZN19OpenColorIO_v2_5dev12_GLOBAL__N_115StripEndNewLineEPc.exit ], [ %6, %.lr.ph.preheader ]
  %gep20 = getelementptr i8, ptr %invariant.gep19, i64 %11
  %12 = load ptr, ptr %gep20, align 8, !tbaa !53
  %.not.i.i.i = icmp eq ptr %12, null
  br i1 %.not.i.i.i, label %13, label %_ZSt13__check_facetISt5ctypeIcEERKT_PS3_.exit.i.i

13:                                               ; preds = %.lr.ph
  tail call void @_ZSt16__throw_bad_castv() #34
  unreachable

_ZSt13__check_facetISt5ctypeIcEERKT_PS3_.exit.i.i: ; preds = %.lr.ph
  %14 = getelementptr inbounds nuw i8, ptr %12, i64 56
  %15 = load i8, ptr %14, align 8, !tbaa !61
  %.not.i1.i.i = icmp eq i8 %15, 0
  br i1 %.not.i1.i.i, label %19, label %16

16:                                               ; preds = %_ZSt13__check_facetISt5ctypeIcEERKT_PS3_.exit.i.i
  %17 = getelementptr inbounds nuw i8, ptr %12, i64 67
  %18 = load i8, ptr %17, align 1, !tbaa !14
  br label %_ZNSi7getlineEPcl.exit

19:                                               ; preds = %_ZSt13__check_facetISt5ctypeIcEERKT_PS3_.exit.i.i
  tail call void @_ZNKSt5ctypeIcE13_M_widen_initEv(ptr noundef nonnull align 8 dereferenceable(570) %12)
  %20 = load ptr, ptr %12, align 8, !tbaa !3
  %21 = getelementptr inbounds nuw i8, ptr %20, i64 48
  %22 = load ptr, ptr %21, align 8
  %23 = tail call noundef signext i8 %22(ptr noundef nonnull align 8 dereferenceable(570) %12, i8 noundef signext 10)
  br label %_ZNSi7getlineEPcl.exit

_ZNSi7getlineEPcl.exit:                           ; preds = %16, %19
  %.0.i.i.i = phi i8 [ %18, %16 ], [ %23, %19 ]
  %24 = tail call noundef nonnull align 8 dereferenceable(16) ptr @_ZNSi7getlineEPclc(ptr noundef nonnull align 8 dereferenceable(16) %0, ptr noundef nonnull %2, i64 noundef 200, i8 noundef signext %.0.i.i.i)
  %25 = load i32, ptr %1, align 4, !tbaa !27
  %26 = add nsw i32 %25, 1
  store i32 %26, ptr %1, align 4, !tbaa !27
  %27 = load i8, ptr %2, align 1, !tbaa !14
  %.not.i = icmp eq i8 %27, 0
  br i1 %.not.i, label %_ZN19OpenColorIO_v2_5dev12_GLOBAL__N_125ReplaceTabsAndStripSpacesEPc.exit, label %.preheader28.i

.preheader28.i:                                   ; preds = %_ZNSi7getlineEPcl.exit, %35
  %indvars.iv.i = phi i16 [ %indvars.iv.next.i, %35 ], [ 0, %_ZNSi7getlineEPcl.exit ]
  %.021.i = phi i16 [ %28, %35 ], [ -1, %_ZNSi7getlineEPcl.exit ]
  %28 = add i16 %.021.i, 1
  %29 = sext i16 %28 to i64
  %30 = getelementptr inbounds i8, ptr %2, i64 %29
  %31 = load i8, ptr %30, align 1, !tbaa !14
  switch i8 %31, label %35 [
    i8 0, label %.preheader27.preheader.i
    i8 9, label %34
  ]

.preheader27.preheader.i:                         ; preds = %.preheader28.i
  %32 = zext i16 %indvars.iv.i to i64
  %smin.i = tail call i16 @llvm.smin.i16(i16 %.021.i, i16 -1)
  %33 = add nsw i16 %smin.i, 1
  br label %.preheader27.i

34:                                               ; preds = %.preheader28.i
  store i8 32, ptr %30, align 1, !tbaa !14
  br label %35

35:                                               ; preds = %34, %.preheader28.i
  %indvars.iv.next.i = add i16 %indvars.iv.i, 1
  br label %.preheader28.i, !llvm.loop !66

.preheader27.i:                                   ; preds = %38, %.preheader27.preheader.i
  %indvars.iv31.i = phi i64 [ %32, %.preheader27.preheader.i ], [ %indvars.iv.next32.i, %38 ]
  %indvars.iv.next32.i = add nsw i64 %indvars.iv31.i, -1
  %36 = and i64 %indvars.iv.next32.i, 32768
  %37 = icmp eq i64 %36, 0
  br i1 %37, label %38, label %.critedge.i

38:                                               ; preds = %.preheader27.i
  %39 = and i64 %indvars.iv.next32.i, 32767
  %40 = getelementptr inbounds nuw i8, ptr %2, i64 %39
  %41 = load i8, ptr %40, align 1, !tbaa !14
  %42 = icmp eq i8 %41, 32
  br i1 %42, label %.preheader27.i, label %.critedge.split.loop.exit34.i, !llvm.loop !67

.critedge.split.loop.exit34.i:                    ; preds = %38
  %43 = trunc nuw i64 %indvars.iv31.i to i16
  br label %.critedge.i

.critedge.i:                                      ; preds = %.preheader27.i, %.critedge.split.loop.exit34.i
  %.1.lcssa.i = phi i16 [ %43, %.critedge.split.loop.exit34.i ], [ %33, %.preheader27.i ]
  %44 = sext i16 %.1.lcssa.i to i64
  %45 = getelementptr inbounds i8, ptr %2, i64 %44
  %46 = load i8, ptr %45, align 1, !tbaa !14
  %.not24.i = icmp eq i8 %46, 0
  br i1 %.not24.i, label %.preheader, label %47

47:                                               ; preds = %.critedge.i
  store i8 0, ptr %45, align 1, !tbaa !14
  br label %.preheader

.preheader:                                       ; preds = %47, %.critedge.i
  br label %48

48:                                               ; preds = %.preheader, %48
  %.2.i = phi i16 [ %49, %48 ], [ -1, %.preheader ]
  %49 = add i16 %.2.i, 1
  %50 = sext i16 %49 to i64
  %51 = getelementptr inbounds i8, ptr %2, i64 %50
  %52 = load i8, ptr %51, align 1, !tbaa !14
  %53 = icmp eq i8 %52, 32
  br i1 %53, label %48, label %54, !llvm.loop !68

54:                                               ; preds = %48
  %.not25.i = icmp eq i16 %49, 0
  br i1 %.not25.i, label %_ZN19OpenColorIO_v2_5dev12_GLOBAL__N_125ReplaceTabsAndStripSpacesEPc.exit, label %.preheader.i

.preheader.i:                                     ; preds = %54, %.preheader.i
  %.3.i = phi i16 [ %55, %.preheader.i ], [ %49, %54 ]
  %.0.i = phi i16 [ %59, %.preheader.i ], [ 0, %54 ]
  %55 = add i16 %.3.i, 1
  %56 = sext i16 %.3.i to i64
  %57 = getelementptr inbounds i8, ptr %2, i64 %56
  %58 = load i8, ptr %57, align 1, !tbaa !14
  %59 = add i16 %.0.i, 1
  %60 = sext i16 %.0.i to i64
  %61 = getelementptr inbounds i8, ptr %2, i64 %60
  store i8 %58, ptr %61, align 1, !tbaa !14
  %.not26.i = icmp eq i8 %58, 0
  br i1 %.not26.i, label %_ZN19OpenColorIO_v2_5dev12_GLOBAL__N_125ReplaceTabsAndStripSpacesEPc.exit, label %.preheader.i, !llvm.loop !69

_ZN19OpenColorIO_v2_5dev12_GLOBAL__N_125ReplaceTabsAndStripSpacesEPc.exit: ; preds = %.preheader.i, %_ZNSi7getlineEPcl.exit, %54
  %62 = tail call i64 @strlen(ptr noundef nonnull dereferenceable(1) %2) #35
  %.not.i11 = icmp eq i64 %62, 0
  br i1 %.not.i11, label %_ZN19OpenColorIO_v2_5dev12_GLOBAL__N_115StripEndNewLineEPc.exit, label %63

63:                                               ; preds = %_ZN19OpenColorIO_v2_5dev12_GLOBAL__N_125ReplaceTabsAndStripSpacesEPc.exit
  %gep = getelementptr i8, ptr %invariant.gep, i64 %62
  %64 = load i8, ptr %gep, align 1, !tbaa !14
  switch i8 %64, label %_ZN19OpenColorIO_v2_5dev12_GLOBAL__N_115StripEndNewLineEPc.exit [
    i8 10, label %65
    i8 13, label %65
  ]

65:                                               ; preds = %63, %63
  store i8 0, ptr %gep, align 1, !tbaa !14
  br label %_ZN19OpenColorIO_v2_5dev12_GLOBAL__N_115StripEndNewLineEPc.exit

_ZN19OpenColorIO_v2_5dev12_GLOBAL__N_115StripEndNewLineEPc.exit: ; preds = %_ZN19OpenColorIO_v2_5dev12_GLOBAL__N_125ReplaceTabsAndStripSpacesEPc.exit, %63, %65
  %66 = load i8, ptr %2, align 1, !tbaa !14
  %switch.selectcmp.case1 = icmp eq i8 %66, 0
  %switch.selectcmp.case2 = icmp eq i8 %66, 35
  %switch.selectcmp = or i1 %switch.selectcmp.case1, %switch.selectcmp.case2
  %67 = load ptr, ptr %0, align 8, !tbaa !3
  %68 = getelementptr i8, ptr %67, i64 -24
  %69 = load i64, ptr %68, align 8
  %gep22 = getelementptr i8, ptr %invariant.gep21, i64 %69
  %70 = load i32, ptr %gep22, align 8, !tbaa !44
  %71 = icmp eq i32 %70, 0
  %72 = and i1 %switch.selectcmp, %71
  br i1 %72, label %.lr.ph, label %._crit_edge, !llvm.loop !159

._crit_edge:                                      ; preds = %_ZN19OpenColorIO_v2_5dev12_GLOBAL__N_115StripEndNewLineEPc.exit, %3
  %.lcssa13 = phi i1 [ false, %3 ], [ %71, %_ZN19OpenColorIO_v2_5dev12_GLOBAL__N_115StripEndNewLineEPc.exit ]
  ret i1 %.lcssa13
}